target datalayout = "e-m:e-p270:32:32-p271:32:32-p272:64:64-i64:64-i128:128-f80:128-n8:16:32:64-S128"
target triple = "x86_64-pc-linux-gnu"

@.str.42 = private unnamed_addr constant [2 x i8] c":\00", align 1
@.str.43 = private unnamed_addr constant [19 x i8] c"No protocols given\00", align 1
@.str.44 = private unnamed_addr constant [35 x i8] c"Could not find dissector for: '%s'\00", align 1

; Function Attrs: nounwind uwtable
define internal zeroext i1 @protos_chk_cb(ptr noundef %0, ptr noundef %1, i32 noundef %2, ptr noundef %3, ptr noundef %4, ptr noundef %5) #0 {
  %7 = alloca i1, align 1
  %8 = alloca ptr, align 8
  %9 = alloca ptr, align 8
  %10 = alloca i32, align 4
  %11 = alloca ptr, align 8
  %12 = alloca ptr, align 8
  %13 = alloca ptr, align 8
  %14 = alloca ptr, align 8
  %15 = alloca ptr, align 8
  %16 = alloca i32, align 4
  %17 = alloca i32, align 4
  store ptr %0, ptr %8, align 8
  store ptr %1, ptr %9, align 8
  store i32 %2, ptr %10, align 4
  store ptr %3, ptr %11, align 8
  store ptr %4, ptr %12, align 8
  store ptr %5, ptr %13, align 8
  %18 = load ptr, ptr %9, align 8
  %19 = load i32, ptr %10, align 4
  %20 = zext i32 %19 to i64
  %21 = call noalias ptr @wmem_strndup(ptr noundef null, ptr noundef %18, i64 noundef %20)
  store ptr %21, ptr %15, align 8
  %22 = load ptr, ptr %15, align 8
  %23 = call ptr @g_strchug(ptr noundef %22)
  %24 = call ptr @g_strchomp(ptr noundef %23)
  %25 = load ptr, ptr %15, align 8
  %26 = call ptr @ascii_strdown_inplace(ptr noundef %25)
  %27 = load ptr, ptr %15, align 8
  %28 = call ptr @g_strsplit(ptr noundef %27, ptr noundef @.str.42, i32 noundef 0)
  store ptr %28, ptr %14, align 8
  store i32 0, ptr %16, align 4
  br label %29

29:                                               ; preds = %44, %6
  %30 = load ptr, ptr %14, align 8
  %31 = load i32, ptr %16, align 4
  %32 = zext i32 %31 to i64
  %33 = getelementptr ptr, ptr %30, i64 %32
  %34 = load ptr, ptr %33, align 8
  %35 = icmp ne ptr %34, null
  br i1 %35, label %36, label %47

36:                                               ; preds = %29
  %37 = load ptr, ptr %14, align 8
  %38 = load i32, ptr %16, align 4
  %39 = zext i32 %38 to i64
  %40 = getelementptr ptr, ptr %37, i64 %39
  %41 = load ptr, ptr %40, align 8
  %42 = call ptr @g_strchug(ptr noundef %41)
  %43 = call ptr @g_strchomp(ptr noundef %42)
  br label %44

44:                                               ; preds = %36
  %45 = load i32, ptr %16, align 4
  %46 = add i32 %45, 1
  store i32 %46, ptr %16, align 4
  br label %29, !llvm.loop !4

47:                                               ; preds = %29
  %48 = load i32, ptr %16, align 4
  %49 = icmp ne i32 %48, 0
  br i1 %49, label %55, label %50

50:                                               ; preds = %47
  %51 = call noalias ptr @g_strdup(ptr noundef @.str.43)
  %52 = load ptr, ptr %13, align 8
  store ptr %51, ptr %52, align 8
  %53 = load ptr, ptr %15, align 8
  call void @wmem_free(ptr noundef null, ptr noundef %53)
  %54 = load ptr, ptr %14, align 8
  call void @g_strfreev(ptr noundef %54)
  store i1 false, ptr %7, align 1
  br label %85

55:                                               ; preds = %47
  store i32 0, ptr %17, align 4
  br label %56

56:                                               ; preds = %79, %55
  %57 = load i32, ptr %17, align 4
  %58 = load i32, ptr %16, align 4
  %59 = icmp ult i32 %57, %58
  br i1 %59, label %60, label %82

60:                                               ; preds = %56
  %61 = load ptr, ptr %14, align 8
  %62 = load i32, ptr %17, align 4
  %63 = zext i32 %62 to i64
  %64 = getelementptr ptr, ptr %61, i64 %63
  %65 = load ptr, ptr %64, align 8
  %66 = call ptr @find_dissector(ptr noundef %65)
  %67 = icmp ne ptr %66, null
  br i1 %67, label %78, label %68

68:                                               ; preds = %60
  %69 = load ptr, ptr %14, align 8
  %70 = load i32, ptr %17, align 4
  %71 = zext i32 %70 to i64
  %72 = getelementptr ptr, ptr %69, i64 %71
  %73 = load ptr, ptr %72, align 8
  %74 = call noalias ptr (ptr, ptr, ...) @wmem_strdup_printf(ptr noundef null, ptr noundef @.str.44, ptr noundef %73)
  %75 = load ptr, ptr %13, align 8
  store ptr %74, ptr %75, align 8
  %76 = load ptr, ptr %15, align 8
  call void @wmem_free(ptr noundef null, ptr noundef %76)
  %77 = load ptr, ptr %14, align 8
  call void @g_strfreev(ptr noundef %77)
  store i1 false, ptr %7, align 1
  br label %85

78:                                               ; preds = %60
  br label %79

79:                                               ; preds = %78
  %80 = load i32, ptr %17, align 4
  %81 = add i32 %80, 1
  store i32 %81, ptr %17, align 4
  br label %56, !llvm.loop !6

82:                                               ; preds = %56
  %83 = load ptr, ptr %15, align 8
  call void @wmem_free(ptr noundef null, ptr noundef %83)
  %84 = load ptr, ptr %14, align 8
  call void @g_strfreev(ptr noundef %84)
  store i1 true, ptr %7, align 1
  br label %85

85:                                               ; preds = %82, %68, %50
  %86 = load i1, ptr %7, align 1
  ret i1 %86
}