; Function Attrs: nounwind uwtable
define internal noundef zeroext i1 @protos_chk_cb(ptr readnone captures(none) %0, ptr noundef %1, i32 noundef %2, ptr readnone captures(none) %3, ptr readnone captures(none) %4, ptr noundef writeonly captures(none) %5) #0 {
  %7 = zext i32 %2 to i64
  %8 = tail call noalias ptr @wmem_strndup(ptr noundef null, ptr noundef %1, i64 noundef %7) #5
  %9 = tail call ptr @g_strchug(ptr noundef %8) #5
  %10 = tail call ptr @g_strchomp(ptr noundef %9) #5
  %11 = tail call ptr @ascii_strdown_inplace(ptr noundef %8) #5
  %12 = tail call ptr @g_strsplit(ptr noundef %8, ptr noundef nonnull @.str.42, i32 noundef 0) #5
  %13 = load ptr, ptr %12, align 8
  %.not31 = icmp eq ptr %13, null
  br i1 %.not31, label %._crit_edge.thread, label %.lr.ph

.lr.ph:                                           ; preds = %6, %.lr.ph
  %14 = phi ptr [ %20, %.lr.ph ], [ %13, %6 ]
  %.02632 = phi i32 [ %17, %.lr.ph ], [ 0, %6 ]
  %15 = tail call ptr @g_strchug(ptr noundef nonnull %14) #5
  %16 = tail call ptr @g_strchomp(ptr noundef %15) #5
  %17 = add i32 %.02632, 1
  %18 = zext i32 %17 to i64
  %19 = getelementptr ptr, ptr %12, i64 %18
  %20 = load ptr, ptr %19, align 8
  %.not = icmp eq ptr %20, null
  br i1 %.not, label %._crit_edge, label %.lr.ph, !llvm.loop !4

._crit_edge:                                      ; preds = %.lr.ph
  %.not29 = icmp eq i32 %17, 0
  br i1 %.not29, label %._crit_edge.thread, label %.preheader.preheader

.preheader.preheader:                             ; preds = %._crit_edge
  %wide.trip.count = zext i32 %17 to i64
  br label %.preheader

._crit_edge.thread:                               ; preds = %6, %._crit_edge
  %21 = tail call noalias ptr @g_strdup(ptr noundef nonnull @.str.43) #5
  br label %.sink.split

22:                                               ; preds = %.preheader
  %indvars.iv.next = add nuw nsw i64 %indvars.iv, 1
  %exitcond.not = icmp eq i64 %indvars.iv.next, %wide.trip.count
  br i1 %exitcond.not, label %.loopexit, label %.preheader, !llvm.loop !6

.preheader:                                       ; preds = %.preheader.preheader, %22
  %indvars.iv = phi i64 [ 0, %.preheader.preheader ], [ %indvars.iv.next, %22 ]
  %23 = getelementptr ptr, ptr %12, i64 %indvars.iv
  %24 = load ptr, ptr %23, align 8
  %25 = tail call ptr @find_dissector(ptr noundef %24) #5
  %.not30 = icmp eq ptr %25, null
  br i1 %.not30, label %26, label %22

26:                                               ; preds = %.preheader
  %27 = getelementptr ptr, ptr %12, i64 %indvars.iv
  %28 = load ptr, ptr %27, align 8
  %29 = tail call noalias ptr (ptr, ptr, ...) @wmem_strdup_printf(ptr noundef null, ptr noundef nonnull @.str.44, ptr noundef %28) #5
  br label %.sink.split

.sink.split:                                      ; preds = %._crit_edge.thread, %26
  %.sink = phi ptr [ %29, %26 ], [ %21, %._crit_edge.thread ]
  store ptr %.sink, ptr %5, align 8
  br label %.loopexit

.loopexit:                                        ; preds = %22, %.sink.split
  %.027 = phi i1 [ false, %.sink.split ], [ true, %22 ]
  tail call void @wmem_free(ptr noundef null, ptr noundef %8) #5
  tail call void @g_strfreev(ptr noundef nonnull %12) #5
  ret i1 %.027
}